Certificate:
    Data:
        Version: 1 (0x0)
        Serial Number: 1 (0x1)
        Signature Algorithm: md5WithRSAEncryption
        Issuer: C=US, ST=Unset, L=Unset, O=Unset, CN=www.example.com
        Validity
            Not Before: Jul 23 16:20:41 2013 GMT
            Not After : Jul 23 16:20:41 2014 GMT
        Subject: C=US, ST=Unset, O=Unset, CN=www.example.com
        Subject Public Key Info:
            Public Key Algorithm: rsaEncryption
                Public-Key: (1024 bit)
                Modulus:
                    00:d2:85:a2:08:41:bc:2d:6b:c5:71:d8:12:42:89:
                    d7:65:6c:f7:7e:b1:28:35:6b:2d:76:67:20:6e:83:
                    52:a9:d8:0f:05:46:15:3f:4d:4c:1f:9b:67:a5:cb:
                    44:7f:43:64:73:92:97:d5:32:3b:69:cd:6a:44:fd:
                    83:01:a2:f1:24:a8:77:06:aa:d6:57:ed:a6:07:a9:
                    4a:c4:90:f9:40:14:35:56:e8:3f:16:67:1a:e4:fe:
                    61:4e:43:43:97:c6:b2:db:68:8b:4f:a9:54:c9:63:
                    59:77:0d:aa:a7:5a:11:4f:04:8b:f1:52:93:bd:3d:
                    8c:85:cf:74:3d:ec:1e:d9:b1
                Exponent: 65537 (0x10001)
    Signature Algorithm: md5WithRSAEncryption
        a7:39:4b:a0:cb:85:2a:76:25:72:dd:5d:d3:a5:20:cd:e6:a2:
        dc:6d:b9:46:1f:05:ae:11:5b:02:14:62:10:39:9c:d4:08:d7:
        8d:e3:4d:90:b7:6c:bc:a3:48:86:49:95:12:75:36:68:c2:db:
        03:d6:f5:f5:46:d9:28:7c:70:f9:99:6a:d0:65:68:f7:79:b2:
        35:6a:f4:aa:56:27:a8:6d:2a:51:eb:ac:bf:c6:6b:05:b6:8f:
        b0:6f:7b:8a:8d:56:f1:d7:29:ea:81:8d:88:c8:0b:25:2a:58:
        29:06:5a:67:3a:71:8c:02:88:e2:aa:60:a1:8b:6f:57:d9:13:
        c6:3d
-----BEGIN CERTIFICATE-----
MIICDTCCAXYCAQEwDQYJKoZIhvcNAQEEBQAwVzELMAkGA1UEBhMCVVMxDjAMBgNV
BAgTBVVuc2V0MQ4wDAYDVQQHEwVVbnNldDEOMAwGA1UEChMFVW5zZXQxGDAWBgNV
BAMTD3d3dy5leGFtcGxlLmNvbTAeFw0xMzA3MjMxNjIwNDFaFw0xNDA3MjMxNjIw
NDFaMEcxCzAJBgNVBAYTAlVTMQ4wDAYDVQQIEwVVbnNldDEOMAwGA1UEChMFVW5z
ZXQxGDAWBgNVBAMTD3d3dy5leGFtcGxlLmNvbTCBnzANBgkqhkiG9w0BAQEFAAOB
jQAwgYkCgYEA0oWiCEG8LWvFcdgSQonXZWz3frEoNWstdmcgboNSqdgPBUYVP01M
H5tnpctEf0Nkc5KX1TI7ac1qRP2DAaLxJKh3BqrWV+2mB6lKxJD5QBQ1Vug/Fmca
5P5hTkNDl8ay22iLT6lUyWNZdw2qp1oRTwSL8VKTvT2Mhc90Pewe2bECAwEAATAN
BgkqhkiG9w0BAQQFAAOBgQCnOUugy4UqdiVy3V3TpSDN5qLcbblGHwWuEVsCFGIQ
OZzUCNeN402Qt2y8o0iGSZUSdTZowtsD1vX1RtkofHD5mWrQZWj3ebI1avSqVieo
bSpR66y/xmsFto+wb3uKjVbx1ynqgY2IyAslKlgpBlpnOnGMAojiqmChi29X2RPG
PQ==
-----END CERTIFICATE-----
